target datalayout = "e-m:e-p270:32:32-p271:32:32-p272:64:64-i64:64-i128:128-f80:128-n8:16:32:64-S128"
target triple = "x86_64-pc-linux-gnu"

%struct.If_LibLut_t_ = type { ptr, i32, i32, [33 x float], [33 x [33 x float]] }

; Function Attrs: nounwind uwtable
define float @If_LibLutSlowestPinDelay(ptr noundef %0) #0 {
  %2 = alloca ptr, align 8
  store ptr %0, ptr %2, align 8, !tbaa !15
  %3 = load ptr, ptr %2, align 8, !tbaa !15
  %4 = icmp ne ptr %3, null
  br i1 %4, label %6, label %5

5:                                                ; preds = %1
  br label %39

6:                                                ; preds = %1
  %7 = load ptr, ptr %2, align 8, !tbaa !15
  %8 = getelementptr inbounds nuw %struct.If_LibLut_t_, ptr %7, i32 0, i32 2
  %9 = load i32, ptr %8, align 4, !tbaa !24
  %10 = icmp ne i32 %9, 0
  br i1 %10, label %11, label %26

11:                                               ; preds = %6
  %12 = load ptr, ptr %2, align 8, !tbaa !15
  %13 = getelementptr inbounds nuw %struct.If_LibLut_t_, ptr %12, i32 0, i32 4
  %14 = load ptr, ptr %2, align 8, !tbaa !15
  %15 = getelementptr inbounds nuw %struct.If_LibLut_t_, ptr %14, i32 0, i32 1
  %16 = load i32, ptr %15, align 8, !tbaa !26
  %17 = sext i32 %16 to i64
  %18 = getelementptr inbounds [33 x [33 x float]], ptr %13, i64 0, i64 %17
  %19 = load ptr, ptr %2, align 8, !tbaa !15
  %20 = getelementptr inbounds nuw %struct.If_LibLut_t_, ptr %19, i32 0, i32 1
  %21 = load i32, ptr %20, align 8, !tbaa !26
  %22 = sub nsw i32 %21, 1
  %23 = sext i32 %22 to i64
  %24 = getelementptr inbounds [33 x float], ptr %18, i64 0, i64 %23
  %25 = load float, ptr %24, align 4, !tbaa !21
  br label %36

26:                                               ; preds = %6
  %27 = load ptr, ptr %2, align 8, !tbaa !15
  %28 = getelementptr inbounds nuw %struct.If_LibLut_t_, ptr %27, i32 0, i32 4
  %29 = load ptr, ptr %2, align 8, !tbaa !15
  %30 = getelementptr inbounds nuw %struct.If_LibLut_t_, ptr %29, i32 0, i32 1
  %31 = load i32, ptr %30, align 8, !tbaa !26
  %32 = sext i32 %31 to i64
  %33 = getelementptr inbounds [33 x [33 x float]], ptr %28, i64 0, i64 %32
  %34 = getelementptr inbounds [33 x float], ptr %33, i64 0, i64 0
  %35 = load float, ptr %34, align 4, !tbaa !21
  br label %36

36:                                               ; preds = %26, %11
  %37 = phi float [ %25, %11 ], [ %35, %26 ]
  %38 = fpext float %37 to double
  br label %39

39:                                               ; preds = %36, %5
  %40 = phi double [ 1.000000e+00, %5 ], [ %38, %36 ]
  %41 = fptrunc double %40 to float
  ret float %41
}