; Function Attrs: mustprogress nofree norecurse nosync nounwind willreturn memory(argmem: read) uwtable
define float @If_LibLutSlowestPinDelay(ptr noundef readonly %0) local_unnamed_addr #12 {
  %.not = icmp eq ptr %0, null
  br i1 %.not, label %14, label %2

2:                                                ; preds = %1
  %3 = getelementptr inbounds nuw i8, ptr %0, i64 12
  %4 = load i32, ptr %3, align 4, !tbaa !21
  %.not7 = icmp eq i32 %4, 0
  %5 = getelementptr inbounds nuw i8, ptr %0, i64 148
  %6 = getelementptr inbounds nuw i8, ptr %0, i64 8
  %7 = load i32, ptr %6, align 8, !tbaa !15
  %8 = sext i32 %7 to i64
  %9 = add nsw i32 %7, -1
  %10 = sext i32 %9 to i64
  %11 = getelementptr inbounds [33 x [33 x float]], ptr %5, i64 0, i64 %8, i64 %10
  %12 = getelementptr inbounds [33 x [33 x float]], ptr %5, i64 0, i64 %8
  %.in = select i1 %.not7, ptr %12, ptr %11
  %13 = load float, ptr %.in, align 4, !tbaa !18
  br label %14

14:                                               ; preds = %1, %2
  %15 = phi float [ %13, %2 ], [ 1.000000e+00, %1 ]
  ret float %15
}